target datalayout = "e-m:e-p270:32:32-p271:32:32-p272:64:64-i64:64-i128:128-f80:128-n8:16:32:64-S128"
target triple = "x86_64-pc-linux-gnu"

%"class.std::vector.0" = type { %"struct.std::_Vector_base.1" }
%"struct.std::_Vector_base.1" = type { %"struct.std::_Vector_base<int, std::allocator<int>>::_Vector_impl" }
%"struct.std::_Vector_base<int, std::allocator<int>>::_Vector_impl" = type { %"struct.std::_Vector_base<int, std::allocator<int>>::_Vector_impl_data" }
%"struct.std::_Vector_base<int, std::allocator<int>>::_Vector_impl_data" = type { ptr, ptr, ptr }
%"class.cv::Size_" = type { i32, i32 }
%"struct.cv::MatSize" = type { ptr }
%"struct.cv::MatStep" = type { ptr, [2 x i64] }
%"class.cv::UMat" = type { i32, i32, i32, i32, ptr, i32, ptr, i64, %"struct.cv::MatSize", %"struct.cv::MatStep" }
%"class.std::__shared_count" = type { ptr }
%"struct.cv::Ptr.15" = type { %"class.std::shared_ptr.16" }
%"class.std::shared_ptr.16" = type { %"class.std::__shared_ptr.17" }
%"class.std::__shared_ptr.17" = type { ptr, %"class.std::__shared_count" }
%"struct.std::_Vector_base.25" = type { %"struct.std::_Vector_base<float, std::allocator<float>>::_Vector_impl" }
%"struct.std::_Vector_base<float, std::allocator<float>>::_Vector_impl" = type { %"struct.std::_Vector_base<float, std::allocator<float>>::_Vector_impl_data" }
%"struct.std::_Vector_base<float, std::allocator<float>>::_Vector_impl_data" = type { ptr, ptr, ptr }
%"class.cv::CascadeClassifierImpl" = type { %"class.cv::BaseCascadeClassifier", %"class.cv::CascadeClassifierImpl::Data", %"struct.cv::Ptr.15", %"struct.cv::Ptr.96", %"struct.cv::Ptr.100", %"class.cv::UMat", %"class.cv::UMat", %"class.cv::UMat", %"class.cv::UMat", %"class.cv::UMat", %"class.cv::UMat", %"class.std::recursive_mutex" }
%"class.cv::BaseCascadeClassifier" = type { %"class.cv::Algorithm" }
%"class.cv::Algorithm" = type { ptr }
%"class.cv::CascadeClassifierImpl::Data" = type { i32, i32, i32, i32, i32, %"class.cv::Size_", %"class.std::vector.76", %"class.std::vector.81", %"class.std::vector.86", %"class.std::vector.24", %"class.std::vector.0", %"class.std::vector.91" }
%"class.std::vector.76" = type { %"struct.std::_Vector_base.77" }
%"struct.std::_Vector_base.77" = type { %"struct.std::_Vector_base<cv::CascadeClassifierImpl::Data::Stage, std::allocator<cv::CascadeClassifierImpl::Data::Stage>>::_Vector_impl" }
%"struct.std::_Vector_base<cv::CascadeClassifierImpl::Data::Stage, std::allocator<cv::CascadeClassifierImpl::Data::Stage>>::_Vector_impl" = type { %"struct.std::_Vector_base<cv::CascadeClassifierImpl::Data::Stage, std::allocator<cv::CascadeClassifierImpl::Data::Stage>>::_Vector_impl_data" }
%"struct.std::_Vector_base<cv::CascadeClassifierImpl::Data::Stage, std::allocator<cv::CascadeClassifierImpl::Data::Stage>>::_Vector_impl_data" = type { ptr, ptr, ptr }
%"class.std::vector.81" = type { %"struct.std::_Vector_base.82" }
%"struct.std::_Vector_base.82" = type { %"struct.std::_Vector_base<cv::CascadeClassifierImpl::Data::DTree, std::allocator<cv::CascadeClassifierImpl::Data::DTree>>::_Vector_impl" }
%"struct.std::_Vector_base<cv::CascadeClassifierImpl::Data::DTree, std::allocator<cv::CascadeClassifierImpl::Data::DTree>>::_Vector_impl" = type { %"struct.std::_Vector_base<cv::CascadeClassifierImpl::Data::DTree, std::allocator<cv::CascadeClassifierImpl::Data::DTree>>::_Vector_impl_data" }
%"struct.std::_Vector_base<cv::CascadeClassifierImpl::Data::DTree, std::allocator<cv::CascadeClassifierImpl::Data::DTree>>::_Vector_impl_data" = type { ptr, ptr, ptr }
%"class.std::vector.86" = type { %"struct.std::_Vector_base.87" }
%"struct.std::_Vector_base.87" = type { %"struct.std::_Vector_base<cv::CascadeClassifierImpl::Data::DTreeNode, std::allocator<cv::CascadeClassifierImpl::Data::DTreeNode>>::_Vector_impl" }
%"struct.std::_Vector_base<cv::CascadeClassifierImpl::Data::DTreeNode, std::allocator<cv::CascadeClassifierImpl::Data::DTreeNode>>::_Vector_impl" = type { %"struct.std::_Vector_base<cv::CascadeClassifierImpl::Data::DTreeNode, std::allocator<cv::CascadeClassifierImpl::Data::DTreeNode>>::_Vector_impl_data" }
%"struct.std::_Vector_base<cv::CascadeClassifierImpl::Data::DTreeNode, std::allocator<cv::CascadeClassifierImpl::Data::DTreeNode>>::_Vector_impl_data" = type { ptr, ptr, ptr }
%"class.std::vector.24" = type { %"struct.std::_Vector_base.25" }
%"class.std::vector.91" = type { %"struct.std::_Vector_base.92" }
%"struct.std::_Vector_base.92" = type { %"struct.std::_Vector_base<cv::CascadeClassifierImpl::Data::Stump, std::allocator<cv::CascadeClassifierImpl::Data::Stump>>::_Vector_impl" }
%"struct.std::_Vector_base<cv::CascadeClassifierImpl::Data::Stump, std::allocator<cv::CascadeClassifierImpl::Data::Stump>>::_Vector_impl" = type { %"struct.std::_Vector_base<cv::CascadeClassifierImpl::Data::Stump, std::allocator<cv::CascadeClassifierImpl::Data::Stump>>::_Vector_impl_data" }
%"struct.std::_Vector_base<cv::CascadeClassifierImpl::Data::Stump, std::allocator<cv::CascadeClassifierImpl::Data::Stump>>::_Vector_impl_data" = type { ptr, ptr, ptr }
%"struct.cv::Ptr.96" = type { %"class.std::shared_ptr.97" }
%"class.std::shared_ptr.97" = type { %"class.std::__shared_ptr.98" }
%"class.std::__shared_ptr.98" = type { ptr, %"class.std::__shared_count" }
%"struct.cv::Ptr.100" = type { %"class.std::shared_ptr.101" }
%"class.std::shared_ptr.101" = type { %"class.std::__shared_ptr.102" }
%"class.std::__shared_ptr.102" = type { ptr, %"class.std::__shared_count" }
%"class.std::recursive_mutex" = type { %"class.std::__recursive_mutex_base" }
%"class.std::__recursive_mutex_base" = type { %union.pthread_mutex_t }
%union.pthread_mutex_t = type { %struct.__pthread_mutex_s }
%struct.__pthread_mutex_s = type { i32, i32, i32, i32, i32, i16, i16, %struct.__pthread_internal_list }
%struct.__pthread_internal_list = type { ptr, ptr }

; Function Attrs: mustprogress nounwind uwtable
define linkonce_odr hidden noundef ptr @_ZNKSt12__shared_ptrIN2cv16FeatureEvaluatorELN9__gnu_cxx12_Lock_policyE2EE3getEv(ptr noundef nonnull align 8 dereferenceable(16) %0) #6 comdat align 2 {
  %2 = alloca ptr, align 8
  store ptr %0, ptr %2, align 8, !tbaa !835
  %3 = load ptr, ptr %2, align 8
  %4 = getelementptr inbounds nuw %"class.std::__shared_ptr.17", ptr %3, i32 0, i32 0
  %5 = load ptr, ptr %4, align 8, !tbaa !837
  ret ptr %5
}

; Function Attrs: mustprogress nounwind uwtable
define linkonce_odr hidden noundef ptr @_ZNK2cv3PtrINS_16FeatureEvaluatorEEptEv(ptr noundef nonnull align 8 dereferenceable(16) %0) #6 comdat align 2 {
  %2 = alloca ptr, align 8
  store ptr %0, ptr %2, align 8, !tbaa !111
  %3 = load ptr, ptr %2, align 8
  %4 = call noundef ptr @_ZNKSt12__shared_ptrIN2cv16FeatureEvaluatorELN9__gnu_cxx12_Lock_policyE2EE3getEv(ptr noundef nonnull align 8 dereferenceable(16) %3) #3
  ret ptr %4
}

; Function Attrs: mustprogress uwtable
define hidden noundef i32 @_ZNK2cv21CascadeClassifierImpl14getFeatureTypeEv(ptr noundef nonnull align 8 dereferenceable(752) %0) unnamed_addr #4 align 2 {
  %2 = alloca ptr, align 8
  store ptr %0, ptr %2, align 8, !tbaa !290
  %3 = load ptr, ptr %2, align 8
  %4 = getelementptr inbounds nuw %"class.cv::CascadeClassifierImpl", ptr %3, i32 0, i32 2
  %5 = call noundef ptr @_ZNK2cv3PtrINS_16FeatureEvaluatorEEptEv(ptr noundef nonnull align 8 dereferenceable(16) %4) #3
  %6 = load ptr, ptr %5, align 8, !tbaa !98
  %7 = getelementptr inbounds ptr, ptr %6, i64 4
  %8 = load ptr, ptr %7, align 8
  %9 = call noundef i32 %8(ptr noundef nonnull align 8 dereferenceable(576) %5)
  ret i32 %9
}