; Function Attrs: mustprogress uwtable
define hidden noundef i32 @_ZNK2cv21CascadeClassifierImpl14getFeatureTypeEv(ptr noundef nonnull readonly align 8 captures(none) dereferenceable(752) %0) unnamed_addr #5 align 2 {
  %2 = getelementptr inbounds nuw i8, ptr %0, i64 184
  %3 = load ptr, ptr %2, align 8, !tbaa !224
  %4 = load ptr, ptr %3, align 8, !tbaa !80
  %5 = getelementptr inbounds nuw i8, ptr %4, i64 32
  %6 = load ptr, ptr %5, align 8
  %7 = tail call noundef i32 %6(ptr noundef nonnull align 8 dereferenceable(576) %3)
  ret i32 %7
}